; ModuleID = '41/78.cpp'
source_filename = "41/78.cpp"
target datalayout = "e-m:e-p270:32:32-p271:32:32-p272:64:64-i64:64-f80:128-n8:16:32:64-S128"
target triple = "x86_64-pc-linux-gnu"

%"class.std::ios_base::Init" = type { i8 }
%"class.std::basic_ostream" = type { i32 (...)**, %"class.std::basic_ios" }
%"class.std::basic_ios" = type { %"class.std::ios_base", %"class.std::basic_ostream"*, i8, i8, %"class.std::basic_streambuf"*, %"class.std::ctype"*, %"class.std::num_put"*, %"class.std::num_get"* }
%"class.std::ios_base" = type { i32 (...)**, i64, i64, i32, i32, i32, %"struct.std::ios_base::_Callback_list"*, %"struct.std::ios_base::_Words", [8 x %"struct.std::ios_base::_Words"], i32, %"struct.std::ios_base::_Words"*, %"class.std::locale" }
%"struct.std::ios_base::_Callback_list" = type { %"struct.std::ios_base::_Callback_list"*, void (i32, %"class.std::ios_base"*, i32)*, i32, i32 }
%"struct.std::ios_base::_Words" = type { i8*, i64 }
%"class.std::locale" = type { %"class.std::locale::_Impl"* }
%"class.std::locale::_Impl" = type { i32, %"class.std::locale::facet"**, i64, %"class.std::locale::facet"**, i8** }
%"class.std::locale::facet" = type <{ i32 (...)**, i32, [4 x i8] }>
%"class.std::basic_streambuf" = type { i32 (...)**, i8*, i8*, i8*, i8*, i8*, i8*, %"class.std::locale" }
%"class.std::ctype" = type <{ %"class.std::locale::facet.base", [4 x i8], %struct.__locale_struct*, i8, [7 x i8], i32*, i32*, i16*, i8, [256 x i8], [256 x i8], i8, [6 x i8] }>
%"class.std::locale::facet.base" = type <{ i32 (...)**, i32 }>
%struct.__locale_struct = type { [13 x %struct.__locale_data*], i16*, i32*, i32*, [13 x i8*] }
%struct.__locale_data = type opaque
%"class.std::num_put" = type { %"class.std::locale::facet.base", [4 x i8] }
%"class.std::num_get" = type { %"class.std::locale::facet.base", [4 x i8] }

@_ZStL8__ioinit = internal global %"class.std::ios_base::Init" zeroinitializer, align 1
@__dso_handle = external hidden global i8
@_ZSt4cout = external dso_local global %"class.std::basic_ostream", align 8
@.str = private unnamed_addr constant [2 x i8] c" \00", align 1
@llvm.global_ctors = appending global [1 x { i32, void ()*, i8* }] [{ i32, void ()*, i8* } { i32 65535, void ()* @_GLOBAL__sub_I_78.cpp, i8* null }]

; Function Attrs: noinline uwtable
define internal void @__cxx_global_var_init() #0 section ".text.startup" {
  call void @_ZNSt8ios_base4InitC1Ev(%"class.std::ios_base::Init"* @_ZStL8__ioinit)
  %1 = call i32 @__cxa_atexit(void (i8*)* bitcast (void (%"class.std::ios_base::Init"*)* @_ZNSt8ios_base4InitD1Ev to void (i8*)*), i8* getelementptr inbounds (%"class.std::ios_base::Init", %"class.std::ios_base::Init"* @_ZStL8__ioinit, i32 0, i32 0), i8* @__dso_handle) #3
  ret void
}

declare dso_local void @_ZNSt8ios_base4InitC1Ev(%"class.std::ios_base::Init"*) unnamed_addr #1

; Function Attrs: nounwind
declare dso_local void @_ZNSt8ios_base4InitD1Ev(%"class.std::ios_base::Init"*) unnamed_addr #2

; Function Attrs: nounwind
declare dso_local i32 @__cxa_atexit(void (i8*)*, i8*, i8*) #3

; Function Attrs: noinline norecurse uwtable
define dso_local i32 @main() #4 {
  %1 = alloca i32, align 4
  %2 = alloca i32, align 4
  %3 = alloca i32, align 4
  %4 = alloca i32, align 4
  %5 = alloca i32, align 4
  %6 = alloca i32, align 4
  %7 = alloca i32, align 4
  %8 = alloca i32, align 4
  %9 = alloca i32, align 4
  %10 = alloca i32, align 4
  %11 = alloca i32, align 4
  store i32 0, i32* %1, align 4
  store i32 1, i32* %2, align 4
  br label %12

12:                                               ; preds = %145, %0
  %13 = load i32, i32* %2, align 4
  %14 = icmp sle i32 %13, 5
  br i1 %14, label %15, label %148

15:                                               ; preds = %12
  store i32 1, i32* %3, align 4
  br label %16

16:                                               ; preds = %141, %15
  %17 = load i32, i32* %3, align 4
  %18 = icmp sle i32 %17, 5
  br i1 %18, label %19, label %144

19:                                               ; preds = %16
  %20 = load i32, i32* %3, align 4
  %21 = load i32, i32* %2, align 4
  %22 = icmp ne i32 %20, %21
  br i1 %22, label %23, label %140

23:                                               ; preds = %19
  store i32 1, i32* %4, align 4
  br label %24

24:                                               ; preds = %136, %23
  %25 = load i32, i32* %4, align 4
  %26 = icmp sle i32 %25, 5
  br i1 %26, label %27, label %139

27:                                               ; preds = %24
  %28 = load i32, i32* %4, align 4
  %29 = load i32, i32* %2, align 4
  %30 = icmp ne i32 %28, %29
  br i1 %30, label %31, label %135

31:                                               ; preds = %27
  %32 = load i32, i32* %4, align 4
  %33 = load i32, i32* %3, align 4
  %34 = icmp ne i32 %32, %33
  br i1 %34, label %35, label %135

35:                                               ; preds = %31
  store i32 1, i32* %5, align 4
  br label %36

36:                                               ; preds = %131, %35
  %37 = load i32, i32* %5, align 4
  %38 = icmp sle i32 %37, 5
  br i1 %38, label %39, label %134

39:                                               ; preds = %36
  %40 = load i32, i32* %5, align 4
  %41 = load i32, i32* %2, align 4
  %42 = icmp ne i32 %40, %41
  br i1 %42, label %43, label %130

43:                                               ; preds = %39
  %44 = load i32, i32* %5, align 4
  %45 = load i32, i32* %3, align 4
  %46 = icmp ne i32 %44, %45
  br i1 %46, label %47, label %130

47:                                               ; preds = %43
  %48 = load i32, i32* %5, align 4
  %49 = load i32, i32* %4, align 4
  %50 = icmp ne i32 %48, %49
  br i1 %50, label %51, label %130

51:                                               ; preds = %47
  %52 = load i32, i32* %2, align 4
  %53 = sub nsw i32 15, %52
  %54 = load i32, i32* %3, align 4
  %55 = sub nsw i32 %53, %54
  %56 = load i32, i32* %4, align 4
  %57 = sub nsw i32 %55, %56
  %58 = load i32, i32* %5, align 4
  %59 = sub nsw i32 %57, %58
  store i32 %59, i32* %6, align 4
  %60 = load i32, i32* %6, align 4
  %61 = icmp ne i32 %60, 2
  br i1 %61, label %62, label %129

62:                                               ; preds = %51
  %63 = load i32, i32* %6, align 4
  %64 = icmp ne i32 %63, 3
  br i1 %64, label %65, label %129

65:                                               ; preds = %62
  %66 = load i32, i32* %6, align 4
  %67 = icmp eq i32 %66, 1
  %68 = zext i1 %67 to i32
  store i32 %68, i32* %7, align 4
  %69 = load i32, i32* %3, align 4
  %70 = icmp eq i32 %69, 2
  %71 = zext i1 %70 to i32
  store i32 %71, i32* %8, align 4
  %72 = load i32, i32* %2, align 4
  %73 = icmp eq i32 %72, 5
  %74 = zext i1 %73 to i32
  store i32 %74, i32* %9, align 4
  %75 = load i32, i32* %4, align 4
  %76 = icmp ne i32 %75, 1
  %77 = zext i1 %76 to i32
  store i32 %77, i32* %10, align 4
  %78 = load i32, i32* %5, align 4
  %79 = icmp eq i32 %78, 1
  %80 = zext i1 %79 to i32
  store i32 %80, i32* %11, align 4
  %81 = load i32, i32* %7, align 4
  %82 = load i32, i32* %2, align 4
  %83 = mul nsw i32 %81, %82
  %84 = load i32, i32* %3, align 4
  %85 = load i32, i32* %8, align 4
  %86 = mul nsw i32 %84, %85
  %87 = add nsw i32 %83, %86
  %88 = load i32, i32* %4, align 4
  %89 = load i32, i32* %9, align 4
  %90 = mul nsw i32 %88, %89
  %91 = add nsw i32 %87, %90
  %92 = load i32, i32* %5, align 4
  %93 = load i32, i32* %10, align 4
  %94 = mul nsw i32 %92, %93
  %95 = add nsw i32 %91, %94
  %96 = load i32, i32* %6, align 4
  %97 = load i32, i32* %11, align 4
  %98 = mul nsw i32 %96, %97
  %99 = add nsw i32 %95, %98
  %100 = icmp eq i32 %99, 3
  br i1 %100, label %101, label %128

101:                                              ; preds = %65
  %102 = load i32, i32* %7, align 4
  %103 = load i32, i32* %8, align 4
  %104 = add nsw i32 %102, %103
  %105 = load i32, i32* %9, align 4
  %106 = add nsw i32 %104, %105
  %107 = load i32, i32* %10, align 4
  %108 = add nsw i32 %106, %107
  %109 = load i32, i32* %11, align 4
  %110 = add nsw i32 %108, %109
  %111 = icmp eq i32 %110, 2
  br i1 %111, label %112, label %128

112:                                              ; preds = %101
  %113 = load i32, i32* %2, align 4
  %114 = call dereferenceable(272) %"class.std::basic_ostream"* @_ZNSolsEi(%"class.std::basic_ostream"* @_ZSt4cout, i32 %113)
  %115 = call dereferenceable(272) %"class.std::basic_ostream"* @_ZStlsISt11char_traitsIcEERSt13basic_ostreamIcT_ES5_PKc(%"class.std::basic_ostream"* dereferenceable(272) %114, i8* getelementptr inbounds ([2 x i8], [2 x i8]* @.str, i64 0, i64 0))
  %116 = load i32, i32* %3, align 4
  %117 = call dereferenceable(272) %"class.std::basic_ostream"* @_ZNSolsEi(%"class.std::basic_ostream"* %115, i32 %116)
  %118 = call dereferenceable(272) %"class.std::basic_ostream"* @_ZStlsISt11char_traitsIcEERSt13basic_ostreamIcT_ES5_PKc(%"class.std::basic_ostream"* dereferenceable(272) %117, i8* getelementptr inbounds ([2 x i8], [2 x i8]* @.str, i64 0, i64 0))
  %119 = load i32, i32* %4, align 4
  %120 = call dereferenceable(272) %"class.std::basic_ostream"* @_ZNSolsEi(%"class.std::basic_ostream"* %118, i32 %119)
  %121 = call dereferenceable(272) %"class.std::basic_ostream"* @_ZStlsISt11char_traitsIcEERSt13basic_ostreamIcT_ES5_PKc(%"class.std::basic_ostream"* dereferenceable(272) %120, i8* getelementptr inbounds ([2 x i8], [2 x i8]* @.str, i64 0, i64 0))
  %122 = load i32, i32* %5, align 4
  %123 = call dereferenceable(272) %"class.std::basic_ostream"* @_ZNSolsEi(%"class.std::basic_ostream"* %121, i32 %122)
  %124 = call dereferenceable(272) %"class.std::basic_ostream"* @_ZStlsISt11char_traitsIcEERSt13basic_ostreamIcT_ES5_PKc(%"class.std::basic_ostream"* dereferenceable(272) %123, i8* getelementptr inbounds ([2 x i8], [2 x i8]* @.str, i64 0, i64 0))
  %125 = load i32, i32* %6, align 4
  %126 = call dereferenceable(272) %"class.std::basic_ostream"* @_ZNSolsEi(%"class.std::basic_ostream"* %124, i32 %125)
  %127 = call dereferenceable(272) %"class.std::basic_ostream"* @_ZNSolsEPFRSoS_E(%"class.std::basic_ostream"* %126, %"class.std::basic_ostream"* (%"class.std::basic_ostream"*)* @_ZSt4endlIcSt11char_traitsIcEERSt13basic_ostreamIT_T0_ES6_)
  br label %128

128:                                              ; preds = %112, %101, %65
  br label %129

129:                                              ; preds = %128, %62, %51
  br label %130

130:                                              ; preds = %129, %47, %43, %39
  br label %131

131:                                              ; preds = %130
  %132 = load i32, i32* %5, align 4
  %133 = add nsw i32 %132, 1
  store i32 %133, i32* %5, align 4
  br label %36

134:                                              ; preds = %36
  br label %135

135:                                              ; preds = %134, %31, %27
  br label %136

136:                                              ; preds = %135
  %137 = load i32, i32* %4, align 4
  %138 = add nsw i32 %137, 1
  store i32 %138, i32* %4, align 4
  br label %24

139:                                              ; preds = %24
  br label %140

140:                                              ; preds = %139, %19
  br label %141

141:                                              ; preds = %140
  %142 = load i32, i32* %3, align 4
  %143 = add nsw i32 %142, 1
  store i32 %143, i32* %3, align 4
  br label %16

144:                                              ; preds = %16
  br label %145

145:                                              ; preds = %144
  %146 = load i32, i32* %2, align 4
  %147 = add nsw i32 %146, 1
  store i32 %147, i32* %2, align 4
  br label %12

148:                                              ; preds = %12
  ret i32 0
}

declare dso_local dereferenceable(272) %"class.std::basic_ostream"* @_ZStlsISt11char_traitsIcEERSt13basic_ostreamIcT_ES5_PKc(%"class.std::basic_ostream"* dereferenceable(272), i8*) #1

declare dso_local dereferenceable(272) %"class.std::basic_ostream"* @_ZNSolsEi(%"class.std::basic_ostream"*, i32) #1

declare dso_local dereferenceable(272) %"class.std::basic_ostream"* @_ZNSolsEPFRSoS_E(%"class.std::basic_ostream"*, %"class.std::basic_ostream"* (%"class.std::basic_ostream"*)*) #1

declare dso_local dereferenceable(272) %"class.std::basic_ostream"* @_ZSt4endlIcSt11char_traitsIcEERSt13basic_ostreamIT_T0_ES6_(%"class.std::basic_ostream"* dereferenceable(272)) #1

; Function Attrs: noinline uwtable
define internal void @_GLOBAL__sub_I_78.cpp() #0 section ".text.startup" {
  call void @__cxx_global_var_init()
  ret void
}


!llvm.module.flags = !{!0}
!llvm.ident = !{!1}

!0 = !{i32 1, !"wchar_size", i32 4}
!1 = !{!"clang version 10.0.0-4ubuntu1 "}
